target datalayout = "e-m:e-p270:32:32-p271:32:32-p272:64:64-i64:64-i128:128-f80:128-n8:16:32:64-S128"
target triple = "x86_64-unknown-linux-gnu"

%struct.V9fsPath = type { i16, ptr }
%struct.V9fsState = type { %struct.anon, %struct.anon.0, ptr, ptr, %struct.FsContext, ptr, i32, i32, [128 x %struct.V9fsPDU], ptr, %struct.CoRwlock, i32, ptr, %struct.V9fsConf, %struct.stat, i64, %struct.qht, %struct.qht, %struct.qht, i64, i16, i64 }
%struct.anon = type { ptr }
%struct.anon.0 = type { ptr }
%struct.FsContext = type { i32, ptr, i32, ptr, %struct.ExtendedOps, ptr, ptr, i32, i32 }
%struct.ExtendedOps = type { ptr }
%struct.V9fsPDU = type { i32, i16, i8, i8, %struct.CoQueue, ptr, %struct.anon.2, i32 }
%struct.CoQueue = type { %struct.anon.1 }
%struct.anon.1 = type { ptr, ptr }
%struct.anon.2 = type { ptr, ptr }
%struct.CoRwlock = type { %struct.CoMutex, i32, %struct.anon.4 }
%struct.CoMutex = type { i32, ptr, %struct.anon.3, %struct.anon.3, i32, i32, ptr }
%struct.anon.3 = type { ptr }
%struct.anon.4 = type { ptr, ptr }
%struct.V9fsConf = type { ptr, ptr }
%struct.stat = type { i64, i64, i64, i32, i32, i32, i32, i64, i64, i64, i64, %struct.timespec, %struct.timespec, %struct.timespec, [3 x i64] }
%struct.timespec = type { i64, i64 }
%struct.qht = type { ptr, ptr, %struct.QemuMutex, i32 }
%struct.QemuMutex = type { %union.pthread_mutex_t, i8 }
%union.pthread_mutex_t = type { %struct.__pthread_mutex_s }
%struct.__pthread_mutex_s = type { i32, i32, i32, i32, i32, i16, i16, %struct.__pthread_internal_list }
%struct.__pthread_internal_list = type { ptr, ptr }
%struct._GHashTableIter = type { ptr, ptr, ptr, i32, i32, ptr }
%struct.V9fsFidState = type { i32, i32, %struct.V9fsPath, %union.V9fsFidOpenState, %union.V9fsFidOpenState, i32, i32, i32, i32, i8, %struct.anon.6, %struct.anon.7 }
%union.V9fsFidOpenState = type { %struct.V9fsDir }
%struct.V9fsDir = type { ptr, i32, %struct.CoMutex, %struct.QemuMutex }
%struct.anon.6 = type { ptr }
%struct.anon.7 = type { ptr }
%struct._GArray = type { ptr, i32 }

@.str = private unnamed_addr constant [21 x i8] c"../qemu/hw/9pfs/9p.c\00", align 1
@.str.13 = private unnamed_addr constant [14 x i8] c"!(!fidp->ref)\00", align 1
@__PRETTY_FUNCTION__.put_fid = private unnamed_addr constant [39 x i8] c"int put_fid(V9fsPDU *, V9fsFidState *)\00", align 1

; Function Attrs: nounwind sspstrong uwtable
define internal void @glib_autoptr_clear_GArray(ptr noundef %_ptr) #0 {
entry:
  %_ptr.addr = alloca ptr, align 8
  store ptr %_ptr, ptr %_ptr.addr, align 8
  %0 = load ptr, ptr %_ptr.addr, align 8
  %tobool = icmp ne ptr %0, null
  br i1 %tobool, label %if.then, label %if.end

if.then:                                          ; preds = %entry
  %1 = load ptr, ptr %_ptr.addr, align 8
  call void @g_array_unref(ptr noundef %1)
  br label %if.end

if.end:                                           ; preds = %if.then, %entry
  ret void
}

; Function Attrs: nounwind sspstrong uwtable
define internal void @glib_autoptr_cleanup_GArray(ptr noundef %_ptr) #0 {
entry:
  %_ptr.addr = alloca ptr, align 8
  store ptr %_ptr, ptr %_ptr.addr, align 8
  %0 = load ptr, ptr %_ptr.addr, align 8
  %1 = load ptr, ptr %0, align 8
  call void @glib_autoptr_clear_GArray(ptr noundef %1)
  ret void
}

; Function Attrs: nounwind sspstrong uwtable
define internal i32 @put_fid(ptr noundef %pdu, ptr noundef %fidp) #0 {
entry:
  %retval = alloca i32, align 4
  %pdu.addr = alloca ptr, align 8
  %fidp.addr = alloca ptr, align 8
  store ptr %pdu, ptr %pdu.addr, align 8
  store ptr %fidp, ptr %fidp.addr, align 8
  %0 = load ptr, ptr %fidp.addr, align 8
  %ref = getelementptr inbounds %struct.V9fsFidState, ptr %0, i32 0, i32 8
  %1 = load i32, ptr %ref, align 4
  %tobool = icmp ne i32 %1, 0
  br i1 %tobool, label %if.then, label %if.else

if.then:                                          ; preds = %entry
  br label %if.end

if.else:                                          ; preds = %entry
  call void @__assert_fail(ptr noundef @.str.13, ptr noundef @.str, i32 noundef 396, ptr noundef @__PRETTY_FUNCTION__.put_fid) #16
  unreachable

if.end:                                           ; preds = %if.then
  %2 = load ptr, ptr %fidp.addr, align 8
  %ref1 = getelementptr inbounds %struct.V9fsFidState, ptr %2, i32 0, i32 8
  %3 = load i32, ptr %ref1, align 4
  %dec = add i32 %3, -1
  store i32 %dec, ptr %ref1, align 4
  %4 = load ptr, ptr %fidp.addr, align 8
  %ref2 = getelementptr inbounds %struct.V9fsFidState, ptr %4, i32 0, i32 8
  %5 = load i32, ptr %ref2, align 4
  %tobool3 = icmp ne i32 %5, 0
  br i1 %tobool3, label %if.end9, label %land.lhs.true

land.lhs.true:                                    ; preds = %if.end
  %6 = load ptr, ptr %fidp.addr, align 8
  %clunked = getelementptr inbounds %struct.V9fsFidState, ptr %6, i32 0, i32 9
  %7 = load i8, ptr %clunked, align 8
  %tobool4 = trunc i8 %7 to i1
  br i1 %tobool4, label %if.then5, label %if.end9

if.then5:                                         ; preds = %land.lhs.true
  %8 = load ptr, ptr %fidp.addr, align 8
  %fid = getelementptr inbounds %struct.V9fsFidState, ptr %8, i32 0, i32 1
  %9 = load i32, ptr %fid, align 4
  %10 = load ptr, ptr %pdu.addr, align 8
  %s = getelementptr inbounds %struct.V9fsPDU, ptr %10, i32 0, i32 5
  %11 = load ptr, ptr %s, align 8
  %root_fid = getelementptr inbounds %struct.V9fsState, ptr %11, i32 0, i32 11
  %12 = load i32, ptr %root_fid, align 8
  %cmp = icmp eq i32 %9, %12
  br i1 %cmp, label %if.then6, label %if.end8

if.then6:                                         ; preds = %if.then5
  %13 = load ptr, ptr %pdu.addr, align 8
  %s7 = getelementptr inbounds %struct.V9fsPDU, ptr %13, i32 0, i32 5
  %14 = load ptr, ptr %s7, align 8
  %migration_blocker = getelementptr inbounds %struct.V9fsState, ptr %14, i32 0, i32 12
  call void @migrate_del_blocker(ptr noundef %migration_blocker)
  br label %if.end8

if.end8:                                          ; preds = %if.then6, %if.then5
  %15 = load ptr, ptr %pdu.addr, align 8
  %16 = load ptr, ptr %fidp.addr, align 8
  %call = call i32 @free_fid(ptr noundef %15, ptr noundef %16)
  store i32 %call, ptr %retval, align 4
  br label %return

if.end9:                                          ; preds = %land.lhs.true, %if.end
  store i32 0, ptr %retval, align 4
  br label %return

return:                                           ; preds = %if.end9, %if.end8
  %17 = load i32, ptr %retval, align 4
  ret i32 %17
}

; Function Attrs: nounwind sspstrong uwtable
define internal i32 @v9fs_reopen_fid(ptr noundef %pdu, ptr noundef %f) #0 {
entry:
  %pdu.addr = alloca ptr, align 8
  %f.addr = alloca ptr, align 8
  %err = alloca i32, align 4
  store ptr %pdu, ptr %pdu.addr, align 8
  store ptr %f, ptr %f.addr, align 8
  store i32 1, ptr %err, align 4
  %0 = load ptr, ptr %f.addr, align 8
  %fid_type = getelementptr inbounds %struct.V9fsFidState, ptr %0, i32 0, i32 0
  %1 = load i32, ptr %fid_type, align 8
  %cmp = icmp eq i32 %1, 1
  br i1 %cmp, label %if.then, label %if.else

if.then:                                          ; preds = %entry
  %2 = load ptr, ptr %f.addr, align 8
  %fs = getelementptr inbounds %struct.V9fsFidState, ptr %2, i32 0, i32 3
  %3 = load i32, ptr %fs, align 8
  %cmp1 = icmp eq i32 %3, -1
  br i1 %cmp1, label %if.then2, label %if.end

if.then2:                                         ; preds = %if.then
  br label %do.body

do.body:                                          ; preds = %land.end, %if.then2
  %4 = load ptr, ptr %pdu.addr, align 8
  %5 = load ptr, ptr %f.addr, align 8
  %6 = load ptr, ptr %f.addr, align 8
  %open_flags = getelementptr inbounds %struct.V9fsFidState, ptr %6, i32 0, i32 6
  %7 = load i32, ptr %open_flags, align 4
  %call = call i32 @v9fs_co_open(ptr noundef %4, ptr noundef %5, i32 noundef %7)
  store i32 %call, ptr %err, align 4
  br label %do.cond

do.cond:                                          ; preds = %do.body
  %8 = load i32, ptr %err, align 4
  %cmp3 = icmp eq i32 %8, -4
  br i1 %cmp3, label %land.rhs, label %land.end

land.rhs:                                         ; preds = %do.cond
  %9 = load ptr, ptr %pdu.addr, align 8
  %cancelled = getelementptr inbounds %struct.V9fsPDU, ptr %9, i32 0, i32 3
  %10 = load i8, ptr %cancelled, align 1
  %tobool = icmp ne i8 %10, 0
  %lnot = xor i1 %tobool, true
  br label %land.end

land.end:                                         ; preds = %land.rhs, %do.cond
  %11 = phi i1 [ false, %do.cond ], [ %lnot, %land.rhs ]
  br i1 %11, label %do.body, label %do.end, !llvm.loop !21

do.end:                                           ; preds = %land.end
  br label %if.end

if.end:                                           ; preds = %do.end, %if.then
  br label %if.end22

if.else:                                          ; preds = %entry
  %12 = load ptr, ptr %f.addr, align 8
  %fid_type4 = getelementptr inbounds %struct.V9fsFidState, ptr %12, i32 0, i32 0
  %13 = load i32, ptr %fid_type4, align 8
  %cmp5 = icmp eq i32 %13, 2
  br i1 %cmp5, label %if.then6, label %if.end21

if.then6:                                         ; preds = %if.else
  %14 = load ptr, ptr %f.addr, align 8
  %fs7 = getelementptr inbounds %struct.V9fsFidState, ptr %14, i32 0, i32 3
  %stream = getelementptr inbounds %struct.V9fsDir, ptr %fs7, i32 0, i32 0
  %15 = load ptr, ptr %stream, align 8
  %cmp8 = icmp eq ptr %15, null
  br i1 %cmp8, label %if.then9, label %if.end20

if.then9:                                         ; preds = %if.then6
  br label %do.body10

do.body10:                                        ; preds = %land.end18, %if.then9
  %16 = load ptr, ptr %pdu.addr, align 8
  %17 = load ptr, ptr %f.addr, align 8
  %call11 = call i32 @v9fs_co_opendir(ptr noundef %16, ptr noundef %17)
  store i32 %call11, ptr %err, align 4
  br label %do.cond12

do.cond12:                                        ; preds = %do.body10
  %18 = load i32, ptr %err, align 4
  %cmp13 = icmp eq i32 %18, -4
  br i1 %cmp13, label %land.rhs14, label %land.end18

land.rhs14:                                       ; preds = %do.cond12
  %19 = load ptr, ptr %pdu.addr, align 8
  %cancelled15 = getelementptr inbounds %struct.V9fsPDU, ptr %19, i32 0, i32 3
  %20 = load i8, ptr %cancelled15, align 1
  %tobool16 = icmp ne i8 %20, 0
  %lnot17 = xor i1 %tobool16, true
  br label %land.end18

land.end18:                                       ; preds = %land.rhs14, %do.cond12
  %21 = phi i1 [ false, %do.cond12 ], [ %lnot17, %land.rhs14 ]
  br i1 %21, label %do.body10, label %do.end19, !llvm.loop !22

do.end19:                                         ; preds = %land.end18
  br label %if.end20

if.end20:                                         ; preds = %do.end19, %if.then6
  br label %if.end21

if.end21:                                         ; preds = %if.end20, %if.else
  br label %if.end22

if.end22:                                         ; preds = %if.end21, %if.end
  %22 = load i32, ptr %err, align 4
  ret i32 %22
}

; Function Attrs: nounwind sspstrong uwtable
define internal i32 @v9fs_mark_fids_unreclaim(ptr noundef %pdu, ptr noundef %path) #0 {
entry:
  %pdu.addr = alloca ptr, align 8
  %path.addr = alloca ptr, align 8
  %err = alloca i32, align 4
  %s = alloca ptr, align 8
  %fidp = alloca ptr, align 8
  %fid = alloca ptr, align 8
  %iter = alloca %struct._GHashTableIter, align 8
  %to_reopen = alloca ptr, align 8
  %i = alloca i32, align 4
  store ptr %pdu, ptr %pdu.addr, align 8
  store ptr %path, ptr %path.addr, align 8
  store i32 0, ptr %err, align 4
  %0 = load ptr, ptr %pdu.addr, align 8
  %s1 = getelementptr inbounds %struct.V9fsPDU, ptr %0, i32 0, i32 5
  %1 = load ptr, ptr %s1, align 8
  store ptr %1, ptr %s, align 8
  %call = call ptr @g_array_sized_new(i32 noundef 0, i32 noundef 0, i32 noundef 8, i32 noundef 1)
  store ptr %call, ptr %to_reopen, align 8
  %2 = load ptr, ptr %s, align 8
  %fids = getelementptr inbounds %struct.V9fsState, ptr %2, i32 0, i32 2
  %3 = load ptr, ptr %fids, align 8
  call void @g_hash_table_iter_init(ptr noundef %iter, ptr noundef %3)
  br label %while.cond

while.cond:                                       ; preds = %if.end, %entry
  %call2 = call i32 @g_hash_table_iter_next(ptr noundef %iter, ptr noundef %fid, ptr noundef %fidp)
  %tobool = icmp ne i32 %call2, 0
  br i1 %tobool, label %while.body, label %while.end

while.body:                                       ; preds = %while.cond
  %4 = load ptr, ptr %fidp, align 8
  %path3 = getelementptr inbounds %struct.V9fsFidState, ptr %4, i32 0, i32 2
  %size = getelementptr inbounds %struct.V9fsPath, ptr %path3, i32 0, i32 0
  %5 = load i16, ptr %size, align 8
  %conv = zext i16 %5 to i32
  %6 = load ptr, ptr %path.addr, align 8
  %size4 = getelementptr inbounds %struct.V9fsPath, ptr %6, i32 0, i32 0
  %7 = load i16, ptr %size4, align 8
  %conv5 = zext i16 %7 to i32
  %cmp = icmp eq i32 %conv, %conv5
  br i1 %cmp, label %land.lhs.true, label %if.end

land.lhs.true:                                    ; preds = %while.body
  %8 = load ptr, ptr %fidp, align 8
  %path7 = getelementptr inbounds %struct.V9fsFidState, ptr %8, i32 0, i32 2
  %data = getelementptr inbounds %struct.V9fsPath, ptr %path7, i32 0, i32 1
  %9 = load ptr, ptr %data, align 8
  %10 = load ptr, ptr %path.addr, align 8
  %data8 = getelementptr inbounds %struct.V9fsPath, ptr %10, i32 0, i32 1
  %11 = load ptr, ptr %data8, align 8
  %12 = load ptr, ptr %path.addr, align 8
  %size9 = getelementptr inbounds %struct.V9fsPath, ptr %12, i32 0, i32 0
  %13 = load i16, ptr %size9, align 8
  %conv10 = zext i16 %13 to i64
  %call11 = call i32 @memcmp(ptr noundef %9, ptr noundef %11, i64 noundef %conv10) #18
  %tobool12 = icmp ne i32 %call11, 0
  br i1 %tobool12, label %if.end, label %if.then

if.then:                                          ; preds = %land.lhs.true
  %14 = load ptr, ptr %fidp, align 8
  %ref = getelementptr inbounds %struct.V9fsFidState, ptr %14, i32 0, i32 8
  %15 = load i32, ptr %ref, align 4
  %inc = add i32 %15, 1
  store i32 %inc, ptr %ref, align 4
  %16 = load ptr, ptr %fidp, align 8
  %flags = getelementptr inbounds %struct.V9fsFidState, ptr %16, i32 0, i32 5
  %17 = load i32, ptr %flags, align 8
  %or = or i32 %17, 2
  store i32 %or, ptr %flags, align 8
  %18 = load ptr, ptr %to_reopen, align 8
  %call13 = call ptr @g_array_append_vals(ptr noundef %18, ptr noundef %fidp, i32 noundef 1)
  br label %if.end

if.end:                                           ; preds = %if.then, %land.lhs.true, %while.body
  br label %while.cond, !llvm.loop !28

while.end:                                        ; preds = %while.cond
  store i32 0, ptr %i, align 4
  br label %for.cond

for.cond:                                         ; preds = %for.inc, %while.end
  %19 = load i32, ptr %i, align 4
  %20 = load ptr, ptr %to_reopen, align 8
  %len = getelementptr inbounds %struct._GArray, ptr %20, i32 0, i32 1
  %21 = load i32, ptr %len, align 8
  %cmp14 = icmp ult i32 %19, %21
  br i1 %cmp14, label %for.body, label %for.end

for.body:                                         ; preds = %for.cond
  %22 = load ptr, ptr %to_reopen, align 8
  %data16 = getelementptr inbounds %struct._GArray, ptr %22, i32 0, i32 0
  %23 = load ptr, ptr %data16, align 8
  %24 = load i32, ptr %i, align 4
  %idxprom = sext i32 %24 to i64
  %arrayidx = getelementptr ptr, ptr %23, i64 %idxprom
  %25 = load ptr, ptr %arrayidx, align 8
  store ptr %25, ptr %fidp, align 8
  %26 = load ptr, ptr %pdu.addr, align 8
  %27 = load ptr, ptr %fidp, align 8
  %call17 = call i32 @v9fs_reopen_fid(ptr noundef %26, ptr noundef %27)
  store i32 %call17, ptr %err, align 4
  %28 = load i32, ptr %err, align 4
  %cmp18 = icmp slt i32 %28, 0
  br i1 %cmp18, label %if.then20, label %if.end21

if.then20:                                        ; preds = %for.body
  br label %for.end

if.end21:                                         ; preds = %for.body
  br label %for.inc

for.inc:                                          ; preds = %if.end21
  %29 = load i32, ptr %i, align 4
  %inc22 = add i32 %29, 1
  store i32 %inc22, ptr %i, align 4
  br label %for.cond, !llvm.loop !29

for.end:                                          ; preds = %if.then20, %for.cond
  store i32 0, ptr %i, align 4
  br label %for.cond23

for.cond23:                                       ; preds = %for.inc32, %for.end
  %30 = load i32, ptr %i, align 4
  %31 = load ptr, ptr %to_reopen, align 8
  %len24 = getelementptr inbounds %struct._GArray, ptr %31, i32 0, i32 1
  %32 = load i32, ptr %len24, align 8
  %cmp25 = icmp ult i32 %30, %32
  br i1 %cmp25, label %for.body27, label %for.end34

for.body27:                                       ; preds = %for.cond23
  %33 = load ptr, ptr %pdu.addr, align 8
  %34 = load ptr, ptr %to_reopen, align 8
  %data28 = getelementptr inbounds %struct._GArray, ptr %34, i32 0, i32 0
  %35 = load ptr, ptr %data28, align 8
  %36 = load i32, ptr %i, align 4
  %idxprom29 = sext i32 %36 to i64
  %arrayidx30 = getelementptr ptr, ptr %35, i64 %idxprom29
  %37 = load ptr, ptr %arrayidx30, align 8
  %call31 = call i32 @put_fid(ptr noundef %33, ptr noundef %37)
  br label %for.inc32

for.inc32:                                        ; preds = %for.body27
  %38 = load i32, ptr %i, align 4
  %inc33 = add i32 %38, 1
  store i32 %inc33, ptr %i, align 4
  br label %for.cond23, !llvm.loop !30

for.end34:                                        ; preds = %for.cond23
  %39 = load i32, ptr %err, align 4
  call void @glib_autoptr_cleanup_GArray(ptr noundef %to_reopen)
  ret i32 %39
}