; Function Attrs: nounwind sspstrong uwtable
define internal i32 @v9fs_mark_fids_unreclaim(ptr noundef %pdu, ptr noundef readonly captures(none) %path) #0 {
entry:
  %fidp = alloca ptr, align 8
  %fid = alloca ptr, align 8
  %iter = alloca %struct._GHashTableIter, align 8
  %s1 = getelementptr inbounds nuw i8, ptr %pdu, i64 24
  %0 = load ptr, ptr %s1, align 8
  %call = tail call ptr @g_array_sized_new(i32 noundef 0, i32 noundef 0, i32 noundef 8, i32 noundef 1) #24
  %fids = getelementptr inbounds nuw i8, ptr %0, i64 16
  %1 = load ptr, ptr %fids, align 8
  call void @g_hash_table_iter_init(ptr noundef nonnull %iter, ptr noundef %1) #24
  %call231 = call i32 @g_hash_table_iter_next(ptr noundef nonnull %iter, ptr noundef nonnull %fid, ptr noundef nonnull %fidp) #24
  %tobool.not32 = icmp eq i32 %call231, 0
  br i1 %tobool.not32, label %for.cond.preheader, label %while.body.lr.ph

while.body.lr.ph:                                 ; preds = %entry
  %data8 = getelementptr inbounds nuw i8, ptr %path, i64 8
  br label %while.body

for.cond.preheader:                               ; preds = %if.end, %entry
  %len = getelementptr inbounds nuw i8, ptr %call, i64 8
  %2 = load i32, ptr %len, align 8
  %cmp1435.not = icmp eq i32 %2, 0
  br i1 %cmp1435.not, label %glib_autoptr_cleanup_GArray.exit, label %for.body.lr.ph

for.body.lr.ph:                                   ; preds = %for.cond.preheader
  %cancelled15.i = getelementptr inbounds nuw i8, ptr %pdu, i64 7
  br label %for.body

while.body:                                       ; preds = %while.body.lr.ph, %if.end
  %3 = load ptr, ptr %fidp, align 8
  %path3 = getelementptr inbounds nuw i8, ptr %3, i64 8
  %4 = load i16, ptr %path3, align 8
  %5 = load i16, ptr %path, align 8
  %cmp = icmp eq i16 %4, %5
  br i1 %cmp, label %land.lhs.true, label %if.end

land.lhs.true:                                    ; preds = %while.body
  %data = getelementptr inbounds nuw i8, ptr %3, i64 16
  %6 = load ptr, ptr %data, align 8
  %7 = load ptr, ptr %data8, align 8
  %conv10 = zext i16 %4 to i64
  %bcmp = call i32 @bcmp(ptr %6, ptr %7, i64 %conv10)
  %tobool12.not = icmp eq i32 %bcmp, 0
  br i1 %tobool12.not, label %if.then, label %if.end

if.then:                                          ; preds = %land.lhs.true
  %ref = getelementptr inbounds nuw i8, ptr %3, i64 260
  %8 = load i32, ptr %ref, align 4
  %inc = add i32 %8, 1
  store i32 %inc, ptr %ref, align 4
  %flags = getelementptr inbounds nuw i8, ptr %3, i64 248
  %9 = load i32, ptr %flags, align 8
  %or = or i32 %9, 2
  store i32 %or, ptr %flags, align 8
  %call13 = call ptr @g_array_append_vals(ptr noundef %call, ptr noundef nonnull %fidp, i32 noundef 1) #24
  br label %if.end

if.end:                                           ; preds = %if.then, %land.lhs.true, %while.body
  %call2 = call i32 @g_hash_table_iter_next(ptr noundef nonnull %iter, ptr noundef nonnull %fid, ptr noundef nonnull %fidp) #24
  %tobool.not = icmp eq i32 %call2, 0
  br i1 %tobool.not, label %for.cond.preheader, label %while.body, !llvm.loop !38

for.body:                                         ; preds = %for.body.lr.ph, %for.inc
  %10 = phi i32 [ %2, %for.body.lr.ph ], [ %19, %for.inc ]
  %i.036 = phi i32 [ 0, %for.body.lr.ph ], [ %inc22, %for.inc ]
  %11 = load ptr, ptr %call, align 8
  %idxprom = sext i32 %i.036 to i64
  %arrayidx = getelementptr ptr, ptr %11, i64 %idxprom
  %12 = load ptr, ptr %arrayidx, align 8
  store ptr %12, ptr %fidp, align 8
  %13 = load i32, ptr %12, align 8
  switch i32 %13, label %for.inc [
    i32 1, label %if.then.i
    i32 2, label %if.then6.i
  ]

if.then.i:                                        ; preds = %for.body
  %fs.i = getelementptr inbounds nuw i8, ptr %12, i64 24
  %14 = load i32, ptr %fs.i, align 8
  %cmp1.i = icmp eq i32 %14, -1
  br i1 %cmp1.i, label %do.body.preheader.i, label %for.inc

do.body.preheader.i:                              ; preds = %if.then.i
  %open_flags.i = getelementptr inbounds nuw i8, ptr %12, i64 252
  br label %do.body.i

do.body.i:                                        ; preds = %land.rhs.i, %do.body.preheader.i
  %15 = load i32, ptr %open_flags.i, align 4
  %call.i = call i32 @v9fs_co_open(ptr noundef %pdu, ptr noundef nonnull %12, i32 noundef %15) #24
  %cmp3.i = icmp eq i32 %call.i, -4
  br i1 %cmp3.i, label %land.rhs.i, label %v9fs_reopen_fid.exit

land.rhs.i:                                       ; preds = %do.body.i
  %16 = load i8, ptr %cancelled15.i, align 1
  %tobool.not.i = icmp eq i8 %16, 0
  br i1 %tobool.not.i, label %do.body.i, label %for.end, !llvm.loop !22

if.then6.i:                                       ; preds = %for.body
  %fs7.i = getelementptr inbounds nuw i8, ptr %12, i64 24
  %17 = load ptr, ptr %fs7.i, align 8
  %cmp8.i = icmp eq ptr %17, null
  br i1 %cmp8.i, label %do.body10.i, label %for.inc

do.body10.i:                                      ; preds = %if.then6.i, %land.rhs14.i
  %call11.i = call i32 @v9fs_co_opendir(ptr noundef %pdu, ptr noundef nonnull %12) #24
  %cmp13.i = icmp eq i32 %call11.i, -4
  br i1 %cmp13.i, label %land.rhs14.i, label %v9fs_reopen_fid.exit

land.rhs14.i:                                     ; preds = %do.body10.i
  %18 = load i8, ptr %cancelled15.i, align 1
  %tobool16.not.i = icmp eq i8 %18, 0
  br i1 %tobool16.not.i, label %do.body10.i, label %for.end, !llvm.loop !23

v9fs_reopen_fid.exit:                             ; preds = %do.body10.i, %do.body.i
  %err.0.i = phi i32 [ %call.i, %do.body.i ], [ %call11.i, %do.body10.i ]
  %cmp18 = icmp slt i32 %err.0.i, 0
  br i1 %cmp18, label %for.end, label %v9fs_reopen_fid.exit.for.inc_crit_edge

v9fs_reopen_fid.exit.for.inc_crit_edge:           ; preds = %v9fs_reopen_fid.exit
  %.pre = load i32, ptr %len, align 8
  br label %for.inc

for.inc:                                          ; preds = %v9fs_reopen_fid.exit.for.inc_crit_edge, %for.body, %if.then6.i, %if.then.i
  %19 = phi i32 [ %.pre, %v9fs_reopen_fid.exit.for.inc_crit_edge ], [ %10, %if.then.i ], [ %10, %if.then6.i ], [ %10, %for.body ]
  %err.0.i18 = phi i32 [ %err.0.i, %v9fs_reopen_fid.exit.for.inc_crit_edge ], [ 1, %if.then.i ], [ 1, %if.then6.i ], [ 1, %for.body ]
  %inc22 = add nuw i32 %i.036, 1
  %cmp14 = icmp ult i32 %inc22, %19
  br i1 %cmp14, label %for.body, label %for.end, !llvm.loop !39

for.end:                                          ; preds = %for.inc, %v9fs_reopen_fid.exit, %land.rhs14.i, %land.rhs.i
  %err.1.ph = phi i32 [ -4, %land.rhs.i ], [ -4, %land.rhs14.i ], [ %err.0.i, %v9fs_reopen_fid.exit ], [ %err.0.i18, %for.inc ]
  %.pr = load i32, ptr %len, align 8
  %cmp2538.not = icmp eq i32 %.pr, 0
  br i1 %cmp2538.not, label %glib_autoptr_cleanup_GArray.exit, label %for.body27

for.body27:                                       ; preds = %for.end, %put_fid.exit
  %i.139 = phi i32 [ %inc33, %put_fid.exit ], [ 0, %for.end ]
  %20 = load ptr, ptr %call, align 8
  %idxprom29 = sext i32 %i.139 to i64
  %arrayidx30 = getelementptr ptr, ptr %20, i64 %idxprom29
  %21 = load ptr, ptr %arrayidx30, align 8
  %ref.i = getelementptr inbounds nuw i8, ptr %21, i64 260
  %22 = load i32, ptr %ref.i, align 4
  %tobool.not.i11 = icmp eq i32 %22, 0
  br i1 %tobool.not.i11, label %if.else.i, label %if.end.i

if.else.i:                                        ; preds = %for.body27
  call void @__assert_fail(ptr noundef nonnull @.str.13, ptr noundef nonnull @.str, i32 noundef 396, ptr noundef nonnull @__PRETTY_FUNCTION__.put_fid) #28
  unreachable

if.end.i:                                         ; preds = %for.body27
  %dec.i = add i32 %22, -1
  store i32 %dec.i, ptr %ref.i, align 4
  %tobool3.not.i = icmp eq i32 %dec.i, 0
  br i1 %tobool3.not.i, label %land.lhs.true.i, label %put_fid.exit

land.lhs.true.i:                                  ; preds = %if.end.i
  %clunked.i = getelementptr inbounds nuw i8, ptr %21, i64 264
  %23 = load i8, ptr %clunked.i, align 8
  %tobool4.i = trunc i8 %23 to i1
  br i1 %tobool4.i, label %if.then5.i, label %put_fid.exit

if.then5.i:                                       ; preds = %land.lhs.true.i
  %fid.i = getelementptr inbounds nuw i8, ptr %21, i64 4
  %24 = load i32, ptr %fid.i, align 4
  %25 = load ptr, ptr %s1, align 8
  %root_fid.i = getelementptr inbounds nuw i8, ptr %25, i64 7360
  %26 = load i32, ptr %root_fid.i, align 8
  %cmp.i = icmp eq i32 %24, %26
  br i1 %cmp.i, label %if.then6.i13, label %if.end8.i

if.then6.i13:                                     ; preds = %if.then5.i
  %migration_blocker.i = getelementptr inbounds nuw i8, ptr %25, i64 7368
  call void @migrate_del_blocker(ptr noundef nonnull %migration_blocker.i) #24
  br label %if.end8.i

if.end8.i:                                        ; preds = %if.then6.i13, %if.then5.i
  %call.i12 = call i32 @free_fid(ptr noundef nonnull %pdu, ptr noundef nonnull %21)
  br label %put_fid.exit

put_fid.exit:                                     ; preds = %if.end.i, %land.lhs.true.i, %if.end8.i
  %inc33 = add nuw i32 %i.139, 1
  %27 = load i32, ptr %len, align 8
  %cmp25 = icmp ult i32 %inc33, %27
  br i1 %cmp25, label %for.body27, label %glib_autoptr_cleanup_GArray.exit, !llvm.loop !40

glib_autoptr_cleanup_GArray.exit:                 ; preds = %put_fid.exit, %for.cond.preheader, %for.end
  %err.145 = phi i32 [ %err.1.ph, %for.end ], [ 0, %for.cond.preheader ], [ %err.1.ph, %put_fid.exit ]
  call void @g_array_unref(ptr noundef nonnull %call) #24
  ret i32 %err.145
}